(dp1
S'1758795.srt'
p2
S'ISO-8859-2'
p3
sS'2040367.srt'
p4
S'UTF-8-SIG'
p5
sS'1981115.srt'
p6
S'UTF-8-SIG'
p7
sS'2012011.srt'
p8
S'ascii'
p9
sS'1913166.srt'
p10
g7
sS'2281159.srt'
p11
S'ISO-8859-2'
p12
sS'2381355.srt'
p13
S'UTF-8-SIG'
p14
sS'1980209.srt'
p15
g7
sS'1800240.srt'
p16
S'UTF-8-SIG'
p17
sS'3212510.srt'
p18
g17
sS'2234025.srt'
p19
S'UTF-8-SIG'
p20
sS'2475692.srt'
p21
S'ISO-8859-2'
p22
sS'2084989.srt'
p23
g5
sS'0490075.srt'
p24
g17
sS'2459038.srt'
p25
g14
sS'2369396.srt'
p26
g12
sS'2241047.srt'
p27
S'ascii'
p28
sS'2911578.srt'
p29
g22
sS'2231138.srt'
p30
S'ascii'
p31
sS'1715336.srt'
p32
g17
sS'2334649.srt'
p33
g12
sS'2201548.srt'
p34
g28
sS'2191888.srt'
p35
g17
sS'1411250.srt'
p36
g17
sS'2187884.srt'
p37
g20
sS'1723121.srt'
p38
g3
sS'2328922.srt'
p39
g17
sS'2123342.srt'
p40
g5
sS'1764647.srt'
p41
S'ascii'
p42
sS'1426329.srt'
p43
g22
sS'1863201.srt'
p44
g7
sS'2166500.srt'
p45
g5
sS'2243537.srt'
p46
g20
sS'1602613.srt'
p47
S'ascii'
p48
sS'2198241.srt'
p49
g17
sS'2387559.srt'
p50
g17
sS'2412746.srt'
p51
g17
sS'2111392.srt'
p52
S'windows-1252'
p53
sS'1536051.srt'
p54
g48
sS'2308260.srt'
p55
g22
sS'2012665.srt'
p56
S'utf-8'
p57
sS'1945037.srt'
p58
g17
sS'1204975.srt'
p59
g17
sS'2137359.srt'
p60
S'ISO-8859-2'
p61
sS'1727362.srt'
p62
g42
sS'1773836.srt'
p63
g31
sS'3161790.srt'
p64
g17
sS'1430077.srt'
p65
g17
sS'1930458.srt'
p66
g7
sS'2463512.srt'
p67
g17
sS'1492849.srt'
p68
S'UTF-8-SIG'
p69
sS'2395385.srt'
p70
g14
sS'2446502.srt'
p71
g14
sS'2409634.srt'
p72
g14
sS'2334873.srt'
p73
g12
sS'3249408.srt'
p74
S'UTF-8-SIG'
p75
sS'1423636.srt'
p76
g17
sS'2027064.srt'
p77
g5
sS'2295196.srt'
p78
g31
sS'1825784.srt'
p79
g7
sS'2368553.srt'
p80
g14
sS'1865545.srt'
p81
g7
sS'1813609.srt'
p82
g7
sS'2179226.srt'
p83
g28
sS'1235522.srt'
p84
g17
sS'2609758.srt'
p85
g57
sS'1951181.srt'
p86
g17
sS'1885299.srt'
p87
g57
sS'2073131.srt'
p88
g31
sS'2210834.srt'
p89
g22
sS'1929308.srt'
p90
S'windows-1252'
p91
sS'2172985.srt'
p92
NsS'1879032.srt'
p93
g7
sS'0496375.srt'
p94
g17
sS'2383068.srt'
p95
g17
sS'2081367.srt'
p96
g9
sS'2002718.srt'
p97
g3
sS'1392214.srt'
p98
g17
sS'2103233.srt'
p99
g17
sS'2620736.srt'
p100
S'ascii'
p101
sS'0481499.srt'
p102
g17
sS'1718898.srt'
p103
g17
sS'2908228.srt'
p104
S'utf-8'
p105
sS'2221362.srt'
p106
g20
sS'2511428.srt'
p107
S'windows-1252'
p108
sS'2450440.srt'
p109
g57
sS'1262990.srt'
p110
S'windows-1252'
p111
sS'1737795.srt'
p112
g7
sS'2294677.srt'
p113
g14
sS'2389182.srt'
p114
g17
sS'2473718.srt'
p115
g12
sS'2072066.srt'
p116
g53
sS'2403029.srt'
p117
g108
sS'2386278.srt'
p118
g31
sS'1430132.srt'
p119
g31
sS'2235902.srt'
p120
g17
sS'2051879.srt'
p121
g5
sS'2381962.srt'
p122
S'utf-8'
p123
sS'2195548.srt'
p124
S'windows-1252'
p125
sS'1335975.srt'
p126
g31
sS'1951264.srt'
p127
g7
sS'2181310.srt'
p128
g17
sS'1916763.srt'
p129
g7
sS'3063516.srt'
p130
g75
sS'2041487.srt'
p131
g5
sS'2055765.srt'
p132
g5
sS'2396200.srt'
p133
g17
sS'1839482.srt'
p134
g7
sS'2335176.srt'
p135
g17
sS'1608368.srt'
p136
S'utf-8'
p137
sS'1824904.srt'
p138
g17
sS'1870375.srt'
p139
g7
sS'2425886.srt'
p140
g12
sS'2823574.srt'
p141
g17
sS'1531924.srt'
p142
g17
sS'2872810.srt'
p143
g75
sS'1663207.srt'
p144
g17
sS'2525450.srt'
p145
g14
sS'1815862.srt'
p146
g3
sS'2388715.srt'
p147
g17
sS'2104837.srt'
p148
g5
sS'1598172.srt'
p149
g48
sS'2084093.srt'
p150
g5
sS'2784036.srt'
p151
g17
sS'3068766.srt'
p152
g17
sS'1913178.srt'
p153
g7
sS'1333125.srt'
p154
g22
sS'2390361.srt'
p155
g14
sS'1911644.srt'
p156
g7
sS'1171222.srt'
p157
g17
sS'1532958.srt'
p158
g69
sS'1322269.srt'
p159
g22
sS'2024506.srt'
p160
g5
sS'2172935.srt'
p161
g53
sS'1588173.srt'
p162
g69
sS'1323973.srt'
p163
g17
sS'1206543.srt'
p164
g31
sS'2873214.srt'
p165
g17
sS'1621039.srt'
p166
S'ISO-8859-2'
p167
sS'2064905.srt'
p168
g5
sS'1427298.srt'
p169
g17
sS'1690953.srt'
p170
g137
sS'1976989.srt'
p171
g3
sS'1905040.srt'
p172
g7
sS'2042568.srt'
p173
S'utf-8'
p174
sS'1951095.srt'
p175
g31
sS'1698651.srt'
p176
g69
sS'1428538.srt'
p177
g31
sS'2314374.srt'
p178
g22
sS'2069798.srt'
p179
g5
sS'3121660.srt'
p180
g17
sS'2574190.srt'
p181
g22
sS'1778924.srt'
p182
g7
sS'2948266.srt'
p183
g75
sS'1980929.srt'
p184
g17
sS'2224004.srt'
p185
g20
sS'3020226.srt'
p186
g17
sS'2161435.srt'
p187
g31
sS'2113075.srt'
p188
g9
sS'2226417.srt'
p189
g20
sS'0816442.srt'
p190
g17
sS'0882977.srt'
p191
g22
sS'2630134.srt'
p192
g75
sS'2325518.srt'
p193
g14
sS'2147728.srt'
p194
g5
sS'2053463.srt'
p195
g5
sS'1462901.srt'
p196
g22
sS'2193265.srt'
p197
g20
sS'1245492.srt'
p198
g31
sS'2369235.srt'
p199
g14
sS'2170299.srt'
p200
g17
sS'2314414.srt'
p201
g17
sS'1833888.srt'
p202
g7
sS'0795461.srt'
p203
g17
sS'2017020.srt'
p204
g5
sS'2085752.srt'
p205
g31
sS'2364841.srt'
p206
g14
sS'2417196.srt'
p207
g31
sS'2839344.srt'
p208
g17
sS'2531362.srt'
p209
S'ascii'
p210
sS'2597098.srt'
p211
g17
sS'1545754.srt'
p212
g17
sS'2365001.srt'
p213
g17
sS'1414449.srt'
p214
g17
sS'2375761.srt'
p215
g17
sS'2991296.srt'
p216
g17
sS'2328745.srt'
p217
g17
sS'1663662.srt'
p218
g48
sS'2099633.srt'
p219
g31
sS'2282058.srt'
p220
g22
sS'1545660.srt'
p221
g69
sS'2113792.srt'
p222
g174
sS'2069887.srt'
p223
g53
sS'2231251.srt'
p224
g20
sS'2218003.srt'
p225
S'ISO-8859-2'
p226
sS'2016940.srt'
p227
g5
sS'1517249.srt'
p228
g69
sS'2140577.srt'
p229
g17
sS'2635006.srt'
p230
g17
sS'1797487.srt'
p231
g7
sS'2082156.srt'
p232
g17
sS'2719868.srt'
p233
g31
sS'1971397.srt'
p234
g17
sS'2119404.srt'
p235
g5
sS'1931435.srt'
p236
g7
sS'2657138.srt'
p237
g105
sS'1327773.srt'
p238
g22
sS'2363181.srt'
p239
g22
sS'1528071.srt'
p240
g17
sS'1821694.srt'
p241
g7
sS'1714206.srt'
p242
g7
sS'2417650.srt'
p243
g14
sS'2503154.srt'
p244
g17
sS'2081194.srt'
p245
g5
sS'2209418.srt'
p246
g226
sS'1661382.srt'
p247
g167
sS'2228000.srt'
p248
g17
sS'1951261.srt'
p249
S'utf-8'
p250
sS'1906329.srt'
p251
g7
sS'2958316.srt'
p252
g17
sS'2708254.srt'
p253
g75
sS'1922679.srt'
p254
g7
sS'2294629.srt'
p255
g12
sS'2357263.srt'
p256
g14
sS'1741243.srt'
p257
g3
sS'2390341.srt'
p258
g17
sS'1480295.srt'
p259
g167
sS'1564870.srt'
p260
g48
sS'1925479.srt'
p261
g7
sS'2452384.srt'
p262
g14
sS'2692904.srt'
p263
g17
sS'0790628.srt'
p264
g17
sS'2330654.srt'
p265
g14
sS'2094018.srt'
p266
g9
sS'2303110.srt'
p267
g12
sS'1754811.srt'
p268
g250
sS'2274172.srt'
p269
g14
sS'2166616.srt'
p270
g17
sS'1785669.srt'
p271
g7
sS'2885364.srt'
p272
g17
sS'2083355.srt'
p273
g5
sS'1067765.srt'
p274
g17
sS'1510686.srt'
p275
g167
sS'2499414.srt'
p276
g17
sS'1684233.srt'
p277
g48
sS'2184339.srt'
p278
g20
sS'1551630.srt'
p279
g69
sS'1956618.srt'
p280
g91
sS'1535109.srt'
p281
g69
sS'1905042.srt'
p282
g42
sS'2887322.srt'
p283
g31
sS'1641401.srt'
p284
g22
sS'2663744.srt'
p285
g75
sS'1457767.srt'
p286
g111
sS'1807944.srt'
p287
g7
sS'3004010.srt'
p288
g22
sS'2388637.srt'
p289
g210
sS'2518926.srt'
p290
g14
sS'2319879.srt'
p291
g12
sS'2312390.srt'
p292
g210
sS'2070862.srt'
p293
g5
sS'2861478.srt'
p294
g101
sS'2359024.srt'
p295
g17
sS'2949244.srt'
p296
g17
sS'2279922.srt'
p297
g17
sS'2091343.srt'
p298
g17
sS'2622602.srt'
p299
g17
sS'1753693.srt'
p300
g7
sS'1311060.srt'
p301
g17
sS'2389010.srt'
p302
g17
sS'2385119.srt'
p303
g14
sS'2458820.srt'
p304
g14
sS'2584608.srt'
p305
g31
sS'1650554.srt'
p306
g48
sS'3720788.srt'
p307
g17
sS'2345112.srt'
p308
g14
sS'1828970.srt'
p309
g250
sS'2392846.srt'
p310
g14
sS'2210463.srt'
p311
g20
sS'2343793.srt'
p312
g17
sS'1646212.srt'
p313
g69
sS'2133230.srt'
p314
g17
sS'1623205.srt'
p315
g69
sS'2132285.srt'
p316
g5
sS'1037222.srt'
p317
g17
sS'2309961.srt'
p318
g17
sS'1870419.srt'
p319
g7
sS'2011276.srt'
p320
g5
sS'1311071.srt'
p321
g17
sS'1662293.srt'
p322
g69
sS'2479800.srt'
p323
g17
sS'2230358.srt'
p324
g20
sS'1564369.srt'
p325
g57
sS'2513092.srt'
p326
g210
sS'2509298.srt'
p327
g210
sS'2088923.srt'
p328
g5
sS'2101341.srt'
p329
g5
sS'2327495.srt'
p330
g210
sS'2435514.srt'
p331
g31
sS'2251227.srt'
p332
g20
sS'1984116.srt'
p333
g17
sS'0790636.srt'
p334
g22
sS'1559547.srt'
p335
g69
sS'0409379.srt'
p336
g17
sS'2609670.srt'
p337
g17
sS'2298224.srt'
p338
g17
sS'3174378.srt'
p339
g22
sS'2193215.srt'
p340
g28
sS'2382396.srt'
p341
g31
sS'2295564.srt'
p342
g12
sS'1659338.srt'
p343
g69
sS'2385211.srt'
p344
g17
sS'1891770.srt'
p345
g7
sS'0837559.srt'
p346
g17
sS'1682180.srt'
p347
g167
sS'2669348.srt'
p348
g22
sS'1985966.srt'
p349
g3
sS'2369196.srt'
p350
g22
sS'2274570.srt'
p351
g14
sS'2375037.srt'
p352
g22
sS'2090488.srt'
p353
g22
sS'2380331.srt'
p354
g17
sS'2024544.srt'
p355
g61
sS'1939659.srt'
p356
g7
sS'2404555.srt'
p357
g14
sS'2569736.srt'
p358
g17
sS'1893256.srt'
p359
g3
sS'1757831.srt'
p360
g3
sS'1828959.srt'
p361
S'UTF-16LE'
p362
sS'2431286.srt'
p363
g17
sS'2352802.srt'
p364
g17
sS'2167202.srt'
p365
g5
sS'1634003.srt'
p366
g17
sS'1762399.srt'
p367
g57
sS'1699755.srt'
p368
NsS'1786751.srt'
p369
g42
sS'2302755.srt'
p370
g14
sS'1450321.srt'
p371
g22
sS'2557650.srt'
p372
g22
sS'1229340.srt'
p373
g17
sS'1300854.srt'
p374
g31
sS'1502417.srt'
p375
g69
sS'2171867.srt'
p376
g5
sS'2778268.srt'
p377
g22
sS'1931602.srt'
p378
g17
sS'1993391.srt'
p379
g3
sS'1549920.srt'
p380
g167
sS'1925435.srt'
p381
g7
sS'1819601.srt'
p382
g42
sS'2946582.srt'
p383
g101
sS'2055709.srt'
p384
g5
sS'1839642.srt'
p385
g17
sS'1814621.srt'
p386
g7
sS'2179027.srt'
p387
g17
sS'1517260.srt'
p388
g167
sS'2287214.srt'
p389
g14
sS'0770828.srt'
p390
g22
sS'1817081.srt'
p391
g7
sS'2402603.srt'
p392
g17
sS'2887012.srt'
p393
g31
sS'1838520.srt'
p394
g7
sS'1691917.srt'
p395
g48
sS'2226519.srt'
p396
g28
sS'2265534.srt'
p397
NsS'2357129.srt'
p398
g14
sS'1811307.srt'
p399
g17
sS'2378884.srt'
p400
g123
sS'1837703.srt'
p401
g3
sS'1800379.srt'
p402
g7
sS'2370248.srt'
p403
g14
sS'2839312.srt'
p404
g75
sS'2056757.srt'
p405
g22
sS'1210819.srt'
p406
g17
sS'2245188.srt'
p407
g20
sS'2404463.srt'
p408
g14
sS'2043933.srt'
p409
g17
sS'1967545.srt'
p410
g17
sS'1532538.srt'
p411
g167
sS'2527186.srt'
p412
g17
sS'1343103.srt'
p413
g57
sS'2221558.srt'
p414
g20
sS'1495776.srt'
p415
g69
sS'2521404.srt'
p416
g210
sS'1408101.srt'
p417
g22
sS'2312262.srt'
p418
g17
sS'2004419.srt'
p419
g17
sS'1067773.srt'
p420
g17
sS'2312890.srt'
p421
g14
sS'2234429.srt'
p422
g22
sS'2061756.srt'
p423
g9
sS'2626798.srt'
p424
g17
sS'1911662.srt'
p425
g250
sS'2313189.srt'
p426
g123
sS'1227931.srt'
p427
g22
sS'2538128.srt'
p428
g14
sS'2252304.srt'
p429
g17
sS'2991532.srt'
p430
g75
sS'2707804.srt'
p431
g17
sS'2395199.srt'
p432
g210
sS'2991516.srt'
p433
g101
sS'1935300.srt'
p434
g7
sS'2510268.srt'
p435
g14
sS'2051850.srt'
p436
g9
sS'1091191.srt'
p437
g31
sS'2009406.srt'
p438
g17
sS'2511022.srt'
p439
g31
sS'1213663.srt'
p440
g17
sS'4155318.srt'
p441
g17
sS'1196948.srt'
p442
g22
sS'2081438.srt'
p443
g9
sS'3117746.srt'
p444
g17
sS'1727388.srt'
p445
g42
sS'0993846.srt'
p446
g31
sS'2229377.srt'
p447
g17
sS'0359950.srt'
p448
g22
sS'2900624.srt'
p449
g75
sS'3457380.srt'
p450
g17
sS'2250234.srt'
p451
g28
sS'1821426.srt'
p452
g7
sS'1905041.srt'
p453
g7
sS'2313896.srt'
p454
g17
sS'2076216.srt'
p455
g31
sS'2458106.srt'
p456
g210
sS'2404311.srt'
p457
g12
sS'3184096.srt'
p458
g101
sS'2265398.srt'
p459
g226
sS'1535108.srt'
p460
g69
sS'2497808.srt'
p461
g14
sS'1583421.srt'
p462
g69
sS'1572315.srt'
p463
g69
sS'1462411.srt'
p464
g17
sS'3129706.srt'
p465
g57
sS'2041331.srt'
p466
g17
sS'1829057.srt'
p467
g17
sS'1747958.srt'
p468
g17
sS'1951216.srt'
p469
g7
sS'2141761.srt'
p470
g5
sS'1854564.srt'
p471
g7
sS'2198956.srt'
p472
g17
sS'1536437.srt'
p473
g69
sS'2007360.srt'
p474
g174
sS'2165743.srt'
p475
g31
sS'3341418.srt'
p476
g17
sS'2286988.srt'
p477
g17
sS'2492664.srt'
p478
g17
sS'2364949.srt'
p479
g14
sS'2234155.srt'
p480
g226
sS'2292959.srt'
p481
g14
sS'0816711.srt'
p482
g22
sS'2004271.srt'
p483
g7
sS'2387408.srt'
p484
g31
sS'1657510.srt'
p485
g17
sS'2222192.srt'
p486
g17
sS'1309374.srt'
p487
g17
sS'2507280.srt'
p488
g17
sS'1982735.srt'
p489
g7
sS'2334879.srt'
p490
g123
sS'3043594.srt'
p491
g75
sS'1483013.srt'
p492
g69
sS'2569236.srt'
p493
g12
sS'2333508.srt'
p494
g14
sS'2552498.srt'
p495
g17
sS'3120944.srt'
p496
S'ISO-8859-2'
p497
sS'2293750.srt'
p498
g14
sS'1441395.srt'
p499
g17
sS'2145637.srt'
p500
g5
sS'1426363.srt'
p501
g22
sS'2570738.srt'
p502
g75
sS'2017038.srt'
p503
g53
sS'2122424.srt'
p504
g9
sS'1321511.srt'
p505
g17
sS'2083231.srt'
p506
g5
sS'1904996.srt'
p507
g42
sS'1659216.srt'
p508
g69
sS'1321870.srt'
p509
g22
sS'1413495.srt'
p510
g17
sS'2881698.srt'
p511
g75
sS'1830713.srt'
p512
g3
sS'1702439.srt'
p513
g7
sS'1767354.srt'
p514
g42
sS'2275471.srt'
p515
g12
sS'1798291.srt'
p516
g7
sS'1509788.srt'
p517
g69
sS'0817545.srt'
p518
g22
sS'1874649.srt'
p519
g17
sS'2401007.srt'
p520
g14
sS'1283935.srt'
p521
g22
sS'1472192.srt'
p522
NsS'1170358.srt'
p523
g17
sS'2312718.srt'
p524
g210
sS'3149900.srt'
p525
NsS'1731141.srt'
p526
g7
sS'1798709.srt'
p527
g3
sS'2229511.srt'
p528
g17
sS'2825924.srt'
p529
g75
sS'1288558.srt'
p530
g17
sS'2140373.srt'
p531
g61
sS'1999987.srt'
p532
g31
sS'2309021.srt'
p533
g14
sS'2296697.srt'
p534
g14
sS'2292196.srt'
p535
g22
sS'2071550.srt'
p536
g9
sS'2140113.srt'
p537
g174
sS'2536086.srt'
p538
g17
sS'2350496.srt'
p539
g17
sS'1648208.srt'
p540
g137
sS'2229499.srt'
p541
g226
sS'1961279.srt'
p542
g7
sS'2272336.srt'
p543
g108
sS'1454468.srt'
p544
g57
sS'0463960.srt'
p545
g17
sS'0790736.srt'
p546
g17
sS'1483324.srt'
p547
g167
sS'2325517.srt'
p548
g17
sS'2201251.srt'
p549
S'utf-8'
p550
sS'2349460.srt'
p551
g14
sS'1343092.srt'
p552
g17
sS'1922685.srt'
p553
g7
sS'2024432.srt'
p554
g9
sS'1538403.srt'
p555
g69
sS'1684548.srt'
p556
g137
sS'1340803.srt'
p557
g57
sS'2179116.srt'
p558
g28
sS'2250564.srt'
p559
g22
sS'0848537.srt'
p560
g31
sS'1453405.srt'
p561
NsS'0453562.srt'
p562
g17
sS'1711425.srt'
p563
g42
sS'2014198.srt'
p564
g362
sS'1860353.srt'
p565
g7
sS'1618432.srt'
p566
g137
sS'1606378.srt'
p567
g69
sS'2405372.srt'
p568
g57
sS'2201221.srt'
p569
g20
sS'1464191.srt'
p570
g17
sS'2866360.srt'
p571
g17
sS'2178927.srt'
p572
g20
sS'2378453.srt'
p573
g17
sS'2217936.srt'
p574
g20
sS'2094890.srt'
p575
g5
sS'2042449.srt'
p576
g5
sS'2051894.srt'
p577
g5
sS'2750288.srt'
p578
g75
sS'1211956.srt'
p579
g17
sS'1686042.srt'
p580
g22
sS'1985019.srt'
p581
g7
sS'2258345.srt'
p582
g17
sS'1675759.srt'
p583
g22
sS'1821549.srt'
p584
g7
sS'2377398.srt'
p585
g17
sS'1196124.srt'
p586
g17
sS'1754257.srt'
p587
g7
sS'2854876.srt'
p588
g17
sS'2387433.srt'
p589
g14
sS'2401789.srt'
p590
g14
sS'1425922.srt'
p591
g17
sS'2429074.srt'
p592
g123
sS'2920330.srt'
p593
g17
sS'2191701.srt'
p594
g20
sS'2034139.srt'
p595
g5
sS'1975158.srt'
p596
g7
sS'1800241.srt'
p597
g7
sS'0804463.srt'
p598
g17
sS'2318527.srt'
p599
g14
sS'2303074.srt'
p600
g14
sS'2193191.srt'
p601
g31
sS'2570436.srt'
p602
NsS'1457765.srt'
p603
g17
sS'2413338.srt'
p604
g210
sS'2537176.srt'
p605
g210
sS'2317484.srt'
p606
g14
sS'2646378.srt'
p607
g105
sS'1351685.srt'
p608
g17
sS'2607336.srt'
p609
g22
sS'1582465.srt'
p610
g17
sS'2075280.srt'
p611
g5
sS'1964773.srt'
p612
g17
sS'1928340.srt'
p613
g3
sS'1390398.srt'
p614
g17
sS'2450186.srt'
p615
g108
sS'2578574.srt'
p616
g17
sS'2333804.srt'
p617
g17
sS'2106440.srt'
p618
g5
sS'2005374.srt'
p619
NsS'0765446.srt'
p620
g17
sS'1196956.srt'
p621
g17
sS'3663040.srt'
p622
g17
sS'2430356.srt'
p623
g22
sS'2611626.srt'
p624
g75
sS'1863203.srt'
p625
g42
sS'1670345.srt'
p626
g69
sS'2558484.srt'
p627
g17
sS'1869716.srt'
p628
g42
sS'2362036.srt'
p629
g17
sS'1763288.srt'
p630
g7
sS'2739338.srt'
p631
g17
sS'1650393.srt'
p632
g137
sS'2093977.srt'
p633
g5
sS'1272878.srt'
p634
g22
sS'1540741.srt'
p635
g48
sS'1748016.srt'
p636
g31
sS'1838603.srt'
p637
g7
sS'2388759.srt'
p638
g14
sS'0762138.srt'
p639
g17
s.